; Function Attrs: nounwind uwtable
define internal fastcc ptr @lookup_conf(ptr noundef nonnull %0, ptr noundef %1, ptr noundef %2) unnamed_addr #0 {
  %4 = tail call ptr @NCONF_get_string(ptr noundef nonnull %0, ptr noundef %1, ptr noundef %2) #12
  %5 = icmp eq ptr %4, null
  br i1 %5, label %6, label %9

6:                                                ; preds = %3
  %7 = load ptr, ptr @bio_err, align 8, !tbaa !19
  %8 = tail call i32 (ptr, ptr, ...) @BIO_printf(ptr noundef %7, ptr noundef nonnull @.str.238, ptr noundef %1, ptr noundef %2) #12
  br label %9

9:                                                ; preds = %6, %3
  ret ptr %4
}